; Function Attrs: mustprogress nofree nounwind willreturn memory(read, inaccessiblemem: none) uwtable
define noundef zeroext i1 @_ZNK4pkpy3StrgtERKS0_(ptr nocapture noundef nonnull readonly align 8 dereferenceable(32) %0, ptr nocapture noundef nonnull readonly align 8 dereferenceable(32) %1) local_unnamed_addr #9 align 2 personality ptr @__gxx_personality_v0 {
  %3 = load i32, ptr %0, align 8
  %4 = load i32, ptr %1, align 8
  %5 = tail call i32 @llvm.umin.i32(i32 %3, i32 %4)
  %6 = icmp eq i32 %5, 0
  br i1 %6, label %_ZNSt11char_traitsIcE7compareEPKcS2_m.exit.thread.i.i, label %_ZNSt11char_traitsIcE7compareEPKcS2_m.exit.i.i

_ZNSt11char_traitsIcE7compareEPKcS2_m.exit.i.i:   ; preds = %2
  %.sroa.speculated.i.i = sext i32 %5 to i64
  %7 = getelementptr inbounds i8, ptr %1, i64 8
  %8 = load ptr, ptr %7, align 8
  %9 = getelementptr inbounds i8, ptr %0, i64 8
  %10 = load ptr, ptr %9, align 8
  %11 = tail call i32 @memcmp(ptr noundef %10, ptr noundef %8, i64 noundef %.sroa.speculated.i.i) #23
  %12 = icmp eq i32 %11, 0
  br i1 %12, label %_ZNSt11char_traitsIcE7compareEPKcS2_m.exit.thread.i.i, label %_ZStgtIcSt11char_traitsIcEEbSt17basic_string_viewIT_T0_ES5_.exit

_ZNSt11char_traitsIcE7compareEPKcS2_m.exit.thread.i.i: ; preds = %_ZNSt11char_traitsIcE7compareEPKcS2_m.exit.i.i, %2
  %13 = tail call i32 @llvm.ssub.sat.i32(i32 %3, i32 %4)
  br label %_ZStgtIcSt11char_traitsIcEEbSt17basic_string_viewIT_T0_ES5_.exit

_ZStgtIcSt11char_traitsIcEEbSt17basic_string_viewIT_T0_ES5_.exit: ; preds = %_ZNSt11char_traitsIcE7compareEPKcS2_m.exit.i.i, %_ZNSt11char_traitsIcE7compareEPKcS2_m.exit.thread.i.i
  %.0.i.i = phi i32 [ %13, %_ZNSt11char_traitsIcE7compareEPKcS2_m.exit.thread.i.i ], [ %11, %_ZNSt11char_traitsIcE7compareEPKcS2_m.exit.i.i ]
  %14 = icmp sgt i32 %.0.i.i, 0
  ret i1 %14
}